target datalayout = "e-m:e-p270:32:32-p271:32:32-p272:64:64-i64:64-i128:128-f80:128-n8:16:32:64-S128"
target triple = "x86_64-pc-linux-gnu"

%struct.Halfedge = type { ptr, ptr, ptr, i32, i8, ptr, double, ptr }
%struct.Edge = type { double, double, double, [2 x ptr], [2 x ptr] }
%struct.Site = type { %struct.Point, i64, i32 }
%struct.Point = type { double, double }

; Function Attrs: nounwind uwtable
define i32 @right_of(ptr noundef %0, ptr noundef %1) #0 {
  %3 = alloca i32, align 4
  %4 = alloca ptr, align 8
  %5 = alloca ptr, align 8
  %6 = alloca ptr, align 8
  %7 = alloca ptr, align 8
  %8 = alloca i32, align 4
  %9 = alloca i32, align 4
  %10 = alloca double, align 8
  %11 = alloca double, align 8
  %12 = alloca double, align 8
  %13 = alloca double, align 8
  %14 = alloca double, align 8
  %15 = alloca double, align 8
  %16 = alloca double, align 8
  %17 = alloca i8, align 1
  %18 = alloca i32, align 4
  store ptr %0, ptr %4, align 8, !tbaa !10
  store ptr %1, ptr %5, align 8, !tbaa !47
  call void @llvm.lifetime.start.p0(i64 8, ptr %6) #9
  call void @llvm.lifetime.start.p0(i64 8, ptr %7) #9
  call void @llvm.lifetime.start.p0(i64 4, ptr %8) #9
  call void @llvm.lifetime.start.p0(i64 4, ptr %9) #9
  call void @llvm.lifetime.start.p0(i64 8, ptr %10) #9
  call void @llvm.lifetime.start.p0(i64 8, ptr %11) #9
  call void @llvm.lifetime.start.p0(i64 8, ptr %12) #9
  call void @llvm.lifetime.start.p0(i64 8, ptr %13) #9
  call void @llvm.lifetime.start.p0(i64 8, ptr %14) #9
  call void @llvm.lifetime.start.p0(i64 8, ptr %15) #9
  call void @llvm.lifetime.start.p0(i64 8, ptr %16) #9
  %19 = load ptr, ptr %4, align 8, !tbaa !10
  %20 = getelementptr inbounds nuw %struct.Halfedge, ptr %19, i32 0, i32 2
  %21 = load ptr, ptr %20, align 8, !tbaa !27
  store ptr %21, ptr %6, align 8, !tbaa !25
  %22 = load ptr, ptr %6, align 8, !tbaa !25
  %23 = getelementptr inbounds nuw %struct.Edge, ptr %22, i32 0, i32 4
  %24 = getelementptr inbounds [2 x ptr], ptr %23, i64 0, i64 1
  %25 = load ptr, ptr %24, align 8, !tbaa !32
  store ptr %25, ptr %7, align 8, !tbaa !32
  call void @llvm.lifetime.start.p0(i64 1, ptr %17) #9
  %26 = load ptr, ptr %5, align 8, !tbaa !47
  %27 = getelementptr inbounds nuw %struct.Point, ptr %26, i32 0, i32 0
  %28 = load double, ptr %27, align 8, !tbaa !49
  %29 = load ptr, ptr %7, align 8, !tbaa !32
  %30 = getelementptr inbounds nuw %struct.Site, ptr %29, i32 0, i32 0
  %31 = getelementptr inbounds nuw %struct.Point, ptr %30, i32 0, i32 0
  %32 = load double, ptr %31, align 8, !tbaa !41
  %33 = fcmp ogt double %28, %32
  %34 = zext i1 %33 to i8
  store i8 %34, ptr %17, align 1, !tbaa !42
  %35 = load i8, ptr %17, align 1, !tbaa !42, !range !44, !noundef !45
  %36 = trunc i8 %35 to i1
  br i1 %36, label %37, label %44

37:                                               ; preds = %2
  %38 = load ptr, ptr %4, align 8, !tbaa !10
  %39 = getelementptr inbounds nuw %struct.Halfedge, ptr %38, i32 0, i32 4
  %40 = load i8, ptr %39, align 4, !tbaa !28
  %41 = sext i8 %40 to i32
  %42 = icmp eq i32 %41, 0
  br i1 %42, label %43, label %44

43:                                               ; preds = %37
  store i32 1, ptr %3, align 4
  store i32 1, ptr %18, align 4
  br label %244

44:                                               ; preds = %37, %2
  %45 = load i8, ptr %17, align 1, !tbaa !42, !range !44, !noundef !45
  %46 = trunc i8 %45 to i1
  br i1 %46, label %54, label %47

47:                                               ; preds = %44
  %48 = load ptr, ptr %4, align 8, !tbaa !10
  %49 = getelementptr inbounds nuw %struct.Halfedge, ptr %48, i32 0, i32 4
  %50 = load i8, ptr %49, align 4, !tbaa !28
  %51 = sext i8 %50 to i32
  %52 = icmp eq i32 %51, 1
  br i1 %52, label %53, label %54

53:                                               ; preds = %47
  store i32 0, ptr %3, align 4
  store i32 1, ptr %18, align 4
  br label %244

54:                                               ; preds = %47, %44
  %55 = load ptr, ptr %6, align 8, !tbaa !25
  %56 = getelementptr inbounds nuw %struct.Edge, ptr %55, i32 0, i32 0
  %57 = load double, ptr %56, align 8, !tbaa !33
  %58 = fcmp oeq double %57, 1.000000e+00
  br i1 %58, label %59, label %187

59:                                               ; preds = %54
  %60 = load ptr, ptr %5, align 8, !tbaa !47
  %61 = getelementptr inbounds nuw %struct.Point, ptr %60, i32 0, i32 1
  %62 = load double, ptr %61, align 8, !tbaa !50
  %63 = load ptr, ptr %7, align 8, !tbaa !32
  %64 = getelementptr inbounds nuw %struct.Site, ptr %63, i32 0, i32 0
  %65 = getelementptr inbounds nuw %struct.Point, ptr %64, i32 0, i32 1
  %66 = load double, ptr %65, align 8, !tbaa !38
  %67 = fsub double %62, %66
  store double %67, ptr %11, align 8, !tbaa !36
  %68 = load ptr, ptr %5, align 8, !tbaa !47
  %69 = getelementptr inbounds nuw %struct.Point, ptr %68, i32 0, i32 0
  %70 = load double, ptr %69, align 8, !tbaa !49
  %71 = load ptr, ptr %7, align 8, !tbaa !32
  %72 = getelementptr inbounds nuw %struct.Site, ptr %71, i32 0, i32 0
  %73 = getelementptr inbounds nuw %struct.Point, ptr %72, i32 0, i32 0
  %74 = load double, ptr %73, align 8, !tbaa !41
  %75 = fsub double %70, %74
  store double %75, ptr %10, align 8, !tbaa !36
  store i32 0, ptr %9, align 4, !tbaa !8
  %76 = load i8, ptr %17, align 1, !tbaa !42, !range !44, !noundef !45
  %77 = trunc i8 %76 to i1
  br i1 %77, label %83, label %78

78:                                               ; preds = %59
  %79 = load ptr, ptr %6, align 8, !tbaa !25
  %80 = getelementptr inbounds nuw %struct.Edge, ptr %79, i32 0, i32 1
  %81 = load double, ptr %80, align 8, !tbaa !35
  %82 = fcmp olt double %81, 0.000000e+00
  br i1 %82, label %91, label %83

83:                                               ; preds = %78, %59
  %84 = load i8, ptr %17, align 1, !tbaa !42, !range !44, !noundef !45
  %85 = trunc i8 %84 to i1
  br i1 %85, label %86, label %101

86:                                               ; preds = %83
  %87 = load ptr, ptr %6, align 8, !tbaa !25
  %88 = getelementptr inbounds nuw %struct.Edge, ptr %87, i32 0, i32 1
  %89 = load double, ptr %88, align 8, !tbaa !35
  %90 = fcmp oge double %89, 0.000000e+00
  br i1 %90, label %91, label %101

91:                                               ; preds = %86, %78
  %92 = load double, ptr %11, align 8, !tbaa !36
  %93 = load ptr, ptr %6, align 8, !tbaa !25
  %94 = getelementptr inbounds nuw %struct.Edge, ptr %93, i32 0, i32 1
  %95 = load double, ptr %94, align 8, !tbaa !35
  %96 = load double, ptr %10, align 8, !tbaa !36
  %97 = fmul double %95, %96
  %98 = fcmp oge double %92, %97
  %99 = zext i1 %98 to i32
  store i32 %99, ptr %8, align 4, !tbaa !8
  %100 = load i32, ptr %8, align 4, !tbaa !8
  store i32 %100, ptr %9, align 4, !tbaa !8
  br label %131

101:                                              ; preds = %86, %83
  %102 = load ptr, ptr %5, align 8, !tbaa !47
  %103 = getelementptr inbounds nuw %struct.Point, ptr %102, i32 0, i32 0
  %104 = load double, ptr %103, align 8, !tbaa !49
  %105 = load ptr, ptr %5, align 8, !tbaa !47
  %106 = getelementptr inbounds nuw %struct.Point, ptr %105, i32 0, i32 1
  %107 = load double, ptr %106, align 8, !tbaa !50
  %108 = load ptr, ptr %6, align 8, !tbaa !25
  %109 = getelementptr inbounds nuw %struct.Edge, ptr %108, i32 0, i32 1
  %110 = load double, ptr %109, align 8, !tbaa !35
  %111 = call double @llvm.fmuladd.f64(double %107, double %110, double %104)
  %112 = load ptr, ptr %6, align 8, !tbaa !25
  %113 = getelementptr inbounds nuw %struct.Edge, ptr %112, i32 0, i32 2
  %114 = load double, ptr %113, align 8, !tbaa !37
  %115 = fcmp ogt double %111, %114
  %116 = zext i1 %115 to i32
  store i32 %116, ptr %8, align 4, !tbaa !8
  %117 = load ptr, ptr %6, align 8, !tbaa !25
  %118 = getelementptr inbounds nuw %struct.Edge, ptr %117, i32 0, i32 1
  %119 = load double, ptr %118, align 8, !tbaa !35
  %120 = fcmp olt double %119, 0.000000e+00
  br i1 %120, label %121, label %126

121:                                              ; preds = %101
  %122 = load i32, ptr %8, align 4, !tbaa !8
  %123 = icmp ne i32 %122, 0
  %124 = xor i1 %123, true
  %125 = zext i1 %124 to i32
  store i32 %125, ptr %8, align 4, !tbaa !8
  br label %126

126:                                              ; preds = %121, %101
  %127 = load i32, ptr %8, align 4, !tbaa !8
  %128 = icmp ne i32 %127, 0
  br i1 %128, label %130, label %129

129:                                              ; preds = %126
  store i32 1, ptr %9, align 4, !tbaa !8
  br label %130

130:                                              ; preds = %129, %126
  br label %131

131:                                              ; preds = %130, %91
  %132 = load i32, ptr %9, align 4, !tbaa !8
  %133 = icmp ne i32 %132, 0
  br i1 %133, label %186, label %134

134:                                              ; preds = %131
  %135 = load ptr, ptr %7, align 8, !tbaa !32
  %136 = getelementptr inbounds nuw %struct.Site, ptr %135, i32 0, i32 0
  %137 = getelementptr inbounds nuw %struct.Point, ptr %136, i32 0, i32 0
  %138 = load double, ptr %137, align 8, !tbaa !41
  %139 = load ptr, ptr %6, align 8, !tbaa !25
  %140 = getelementptr inbounds nuw %struct.Edge, ptr %139, i32 0, i32 4
  %141 = getelementptr inbounds [2 x ptr], ptr %140, i64 0, i64 0
  %142 = load ptr, ptr %141, align 8, !tbaa !32
  %143 = getelementptr inbounds nuw %struct.Site, ptr %142, i32 0, i32 0
  %144 = getelementptr inbounds nuw %struct.Point, ptr %143, i32 0, i32 0
  %145 = load double, ptr %144, align 8, !tbaa !41
  %146 = fsub double %138, %145
  store double %146, ptr %12, align 8, !tbaa !36
  %147 = load ptr, ptr %6, align 8, !tbaa !25
  %148 = getelementptr inbounds nuw %struct.Edge, ptr %147, i32 0, i32 1
  %149 = load double, ptr %148, align 8, !tbaa !35
  %150 = load double, ptr %10, align 8, !tbaa !36
  %151 = load double, ptr %10, align 8, !tbaa !36
  %152 = load double, ptr %11, align 8, !tbaa !36
  %153 = load double, ptr %11, align 8, !tbaa !36
  %154 = fmul double %152, %153
  %155 = fneg double %154
  %156 = call double @llvm.fmuladd.f64(double %150, double %151, double %155)
  %157 = fmul double %149, %156
  %158 = load double, ptr %12, align 8, !tbaa !36
  %159 = load double, ptr %11, align 8, !tbaa !36
  %160 = fmul double %158, %159
  %161 = load double, ptr %10, align 8, !tbaa !36
  %162 = fmul double 2.000000e+00, %161
  %163 = load double, ptr %12, align 8, !tbaa !36
  %164 = fdiv double %162, %163
  %165 = fadd double 1.000000e+00, %164
  %166 = load ptr, ptr %6, align 8, !tbaa !25
  %167 = getelementptr inbounds nuw %struct.Edge, ptr %166, i32 0, i32 1
  %168 = load double, ptr %167, align 8, !tbaa !35
  %169 = load ptr, ptr %6, align 8, !tbaa !25
  %170 = getelementptr inbounds nuw %struct.Edge, ptr %169, i32 0, i32 1
  %171 = load double, ptr %170, align 8, !tbaa !35
  %172 = call double @llvm.fmuladd.f64(double %168, double %171, double %165)
  %173 = fmul double %160, %172
  %174 = fcmp olt double %157, %173
  %175 = zext i1 %174 to i32
  store i32 %175, ptr %8, align 4, !tbaa !8
  %176 = load ptr, ptr %6, align 8, !tbaa !25
  %177 = getelementptr inbounds nuw %struct.Edge, ptr %176, i32 0, i32 1
  %178 = load double, ptr %177, align 8, !tbaa !35
  %179 = fcmp olt double %178, 0.000000e+00
  br i1 %179, label %180, label %185

180:                                              ; preds = %134
  %181 = load i32, ptr %8, align 4, !tbaa !8
  %182 = icmp ne i32 %181, 0
  %183 = xor i1 %182, true
  %184 = zext i1 %183 to i32
  store i32 %184, ptr %8, align 4, !tbaa !8
  br label %185

185:                                              ; preds = %180, %134
  br label %186

186:                                              ; preds = %185, %131
  br label %229

187:                                              ; preds = %54
  %188 = load ptr, ptr %6, align 8, !tbaa !25
  %189 = getelementptr inbounds nuw %struct.Edge, ptr %188, i32 0, i32 2
  %190 = load double, ptr %189, align 8, !tbaa !37
  %191 = load ptr, ptr %6, align 8, !tbaa !25
  %192 = getelementptr inbounds nuw %struct.Edge, ptr %191, i32 0, i32 0
  %193 = load double, ptr %192, align 8, !tbaa !33
  %194 = load ptr, ptr %5, align 8, !tbaa !47
  %195 = getelementptr inbounds nuw %struct.Point, ptr %194, i32 0, i32 0
  %196 = load double, ptr %195, align 8, !tbaa !49
  %197 = fneg double %193
  %198 = call double @llvm.fmuladd.f64(double %197, double %196, double %190)
  store double %198, ptr %16, align 8, !tbaa !36
  %199 = load ptr, ptr %5, align 8, !tbaa !47
  %200 = getelementptr inbounds nuw %struct.Point, ptr %199, i32 0, i32 1
  %201 = load double, ptr %200, align 8, !tbaa !50
  %202 = load double, ptr %16, align 8, !tbaa !36
  %203 = fsub double %201, %202
  store double %203, ptr %13, align 8, !tbaa !36
  %204 = load ptr, ptr %5, align 8, !tbaa !47
  %205 = getelementptr inbounds nuw %struct.Point, ptr %204, i32 0, i32 0
  %206 = load double, ptr %205, align 8, !tbaa !49
  %207 = load ptr, ptr %7, align 8, !tbaa !32
  %208 = getelementptr inbounds nuw %struct.Site, ptr %207, i32 0, i32 0
  %209 = getelementptr inbounds nuw %struct.Point, ptr %208, i32 0, i32 0
  %210 = load double, ptr %209, align 8, !tbaa !41
  %211 = fsub double %206, %210
  store double %211, ptr %14, align 8, !tbaa !36
  %212 = load double, ptr %16, align 8, !tbaa !36
  %213 = load ptr, ptr %7, align 8, !tbaa !32
  %214 = getelementptr inbounds nuw %struct.Site, ptr %213, i32 0, i32 0
  %215 = getelementptr inbounds nuw %struct.Point, ptr %214, i32 0, i32 1
  %216 = load double, ptr %215, align 8, !tbaa !38
  %217 = fsub double %212, %216
  store double %217, ptr %15, align 8, !tbaa !36
  %218 = load double, ptr %13, align 8, !tbaa !36
  %219 = load double, ptr %13, align 8, !tbaa !36
  %220 = fmul double %218, %219
  %221 = load double, ptr %14, align 8, !tbaa !36
  %222 = load double, ptr %14, align 8, !tbaa !36
  %223 = load double, ptr %15, align 8, !tbaa !36
  %224 = load double, ptr %15, align 8, !tbaa !36
  %225 = fmul double %223, %224
  %226 = call double @llvm.fmuladd.f64(double %221, double %222, double %225)
  %227 = fcmp ogt double %220, %226
  %228 = zext i1 %227 to i32
  store i32 %228, ptr %8, align 4, !tbaa !8
  br label %229

229:                                              ; preds = %187, %186
  %230 = load ptr, ptr %4, align 8, !tbaa !10
  %231 = getelementptr inbounds nuw %struct.Halfedge, ptr %230, i32 0, i32 4
  %232 = load i8, ptr %231, align 4, !tbaa !28
  %233 = sext i8 %232 to i32
  %234 = icmp eq i32 %233, 0
  br i1 %234, label %235, label %237

235:                                              ; preds = %229
  %236 = load i32, ptr %8, align 4, !tbaa !8
  br label %242

237:                                              ; preds = %229
  %238 = load i32, ptr %8, align 4, !tbaa !8
  %239 = icmp ne i32 %238, 0
  %240 = xor i1 %239, true
  %241 = zext i1 %240 to i32
  br label %242

242:                                              ; preds = %237, %235
  %243 = phi i32 [ %236, %235 ], [ %241, %237 ]
  store i32 %243, ptr %3, align 4
  store i32 1, ptr %18, align 4
  br label %244

244:                                              ; preds = %242, %53, %43
  call void @llvm.lifetime.end.p0(i64 1, ptr %17) #9
  call void @llvm.lifetime.end.p0(i64 8, ptr %16) #9
  call void @llvm.lifetime.end.p0(i64 8, ptr %15) #9
  call void @llvm.lifetime.end.p0(i64 8, ptr %14) #9
  call void @llvm.lifetime.end.p0(i64 8, ptr %13) #9
  call void @llvm.lifetime.end.p0(i64 8, ptr %12) #9
  call void @llvm.lifetime.end.p0(i64 8, ptr %11) #9
  call void @llvm.lifetime.end.p0(i64 8, ptr %10) #9
  call void @llvm.lifetime.end.p0(i64 4, ptr %9) #9
  call void @llvm.lifetime.end.p0(i64 4, ptr %8) #9
  call void @llvm.lifetime.end.p0(i64 8, ptr %7) #9
  call void @llvm.lifetime.end.p0(i64 8, ptr %6) #9
  %245 = load i32, ptr %3, align 4
  ret i32 %245
}