; Function Attrs: mustprogress nofree norecurse nosync nounwind willreturn memory(read, inaccessiblemem: none) uwtable
define range(i32 0, 2) i32 @right_of(ptr noundef readonly captures(none) %0, ptr noundef readonly captures(none) %1) local_unnamed_addr #4 {
  %3 = getelementptr inbounds nuw i8, ptr %0, i64 16
  %4 = load ptr, ptr %3, align 8, !tbaa !14
  %5 = getelementptr inbounds nuw i8, ptr %4, i64 40
  %6 = getelementptr inbounds nuw i8, ptr %4, i64 48
  %7 = load ptr, ptr %6, align 8, !tbaa !25
  %8 = load double, ptr %1, align 8, !tbaa !36
  %9 = load double, ptr %7, align 8, !tbaa !34
  %10 = fcmp ogt double %8, %9
  %11 = getelementptr inbounds nuw i8, ptr %0, i64 28
  %12 = load i8, ptr %11, align 4, !tbaa !19
  br i1 %10, label %13, label %.critedge

13:                                               ; preds = %2
  %14 = icmp eq i8 %12, 0
  br i1 %14, label %99, label %16

.critedge:                                        ; preds = %2
  %15 = icmp eq i8 %12, 1
  br i1 %15, label %99, label %.thread

16:                                               ; preds = %13
  %17 = load double, ptr %4, align 8, !tbaa !26
  %18 = fcmp oeq double %17, 1.000000e+00
  br i1 %18, label %.critedge66, label %79

.thread:                                          ; preds = %.critedge
  %19 = load double, ptr %4, align 8, !tbaa !26
  %20 = fcmp oeq double %19, 1.000000e+00
  br i1 %20, label %21, label %79

21:                                               ; preds = %.thread
  %22 = getelementptr inbounds nuw i8, ptr %1, i64 8
  %23 = load double, ptr %22, align 8, !tbaa !37
  %24 = getelementptr inbounds nuw i8, ptr %7, i64 8
  %25 = load double, ptr %24, align 8, !tbaa !30
  %26 = fsub double %23, %25
  %27 = fsub double %8, %9
  %28 = getelementptr inbounds nuw i8, ptr %4, i64 8
  %29 = load double, ptr %28, align 8, !tbaa !28
  %30 = fcmp olt double %29, 0.000000e+00
  br i1 %30, label %40, label %46

.critedge66:                                      ; preds = %16
  %31 = getelementptr inbounds nuw i8, ptr %1, i64 8
  %32 = load double, ptr %31, align 8, !tbaa !37
  %33 = getelementptr inbounds nuw i8, ptr %7, i64 8
  %34 = load double, ptr %33, align 8, !tbaa !30
  %35 = fsub double %32, %34
  %36 = fsub double %8, %9
  %37 = getelementptr inbounds nuw i8, ptr %4, i64 8
  %38 = load double, ptr %37, align 8, !tbaa !28
  %39 = fcmp ult double %38, 0.000000e+00
  br i1 %39, label %46, label %40

40:                                               ; preds = %.critedge66, %21
  %41 = phi double [ %38, %.critedge66 ], [ %29, %21 ]
  %42 = phi double [ %36, %.critedge66 ], [ %27, %21 ]
  %43 = phi double [ %35, %.critedge66 ], [ %26, %21 ]
  %44 = fmul double %42, %41
  %45 = fcmp ult double %43, %44
  br i1 %45, label %58, label %96

46:                                               ; preds = %21, %.critedge66
  %47 = phi double [ %38, %.critedge66 ], [ %29, %21 ]
  %48 = phi double [ %36, %.critedge66 ], [ %27, %21 ]
  %49 = phi double [ %35, %.critedge66 ], [ %26, %21 ]
  %50 = phi double [ %32, %.critedge66 ], [ %23, %21 ]
  %51 = tail call double @llvm.fmuladd.f64(double %50, double %47, double %8)
  %52 = getelementptr inbounds nuw i8, ptr %4, i64 16
  %53 = load double, ptr %52, align 8, !tbaa !29
  %54 = fcmp ule double %51, %53
  %55 = fcmp olt double %47, 0.000000e+00
  br i1 %55, label %56, label %57

56:                                               ; preds = %46
  br i1 %54, label %58, label %96

57:                                               ; preds = %46
  br i1 %54, label %96, label %58

58:                                               ; preds = %56, %40, %57
  %59 = phi double [ %41, %40 ], [ %47, %57 ], [ %47, %56 ]
  %60 = phi double [ %43, %40 ], [ %49, %57 ], [ %49, %56 ]
  %61 = phi double [ %42, %40 ], [ %48, %57 ], [ %48, %56 ]
  %62 = load ptr, ptr %5, align 8, !tbaa !25
  %63 = load double, ptr %62, align 8, !tbaa !34
  %64 = fsub double %9, %63
  %65 = fneg double %60
  %66 = fmul double %60, %65
  %67 = tail call double @llvm.fmuladd.f64(double %61, double %61, double %66)
  %68 = fmul double %67, %59
  %69 = fmul double %60, %64
  %70 = fmul double %61, 2.000000e+00
  %71 = fdiv double %70, %64
  %72 = fadd double %71, 1.000000e+00
  %73 = tail call double @llvm.fmuladd.f64(double %59, double %59, double %72)
  %74 = fmul double %69, %73
  %75 = fcmp olt double %68, %74
  %76 = fcmp olt double %59, 0.000000e+00
  br i1 %76, label %77, label %96

77:                                               ; preds = %58
  %78 = xor i1 %75, true
  br label %96

79:                                               ; preds = %.thread, %16
  %80 = phi double [ %19, %.thread ], [ %17, %16 ]
  %81 = getelementptr inbounds nuw i8, ptr %4, i64 16
  %82 = load double, ptr %81, align 8, !tbaa !29
  %83 = fneg double %80
  %84 = tail call double @llvm.fmuladd.f64(double %83, double %8, double %82)
  %85 = getelementptr inbounds nuw i8, ptr %1, i64 8
  %86 = load double, ptr %85, align 8, !tbaa !37
  %87 = fsub double %86, %84
  %88 = fsub double %8, %9
  %89 = getelementptr inbounds nuw i8, ptr %7, i64 8
  %90 = load double, ptr %89, align 8, !tbaa !30
  %91 = fsub double %84, %90
  %92 = fmul double %87, %87
  %93 = fmul double %91, %91
  %94 = tail call double @llvm.fmuladd.f64(double %88, double %88, double %93)
  %95 = fcmp ogt double %92, %94
  br label %96

96:                                               ; preds = %56, %40, %57, %77, %58, %79
  %.2.shrunk = phi i1 [ false, %57 ], [ %78, %77 ], [ %75, %58 ], [ %95, %79 ], [ true, %40 ], [ false, %56 ]
  %97 = icmp ne i8 %12, 0
  %.v = xor i1 %.2.shrunk, %97
  %98 = zext i1 %.v to i32
  br label %99

99:                                               ; preds = %.critedge, %13, %96
  %.0 = phi i32 [ %98, %96 ], [ 1, %13 ], [ 0, %.critedge ]
  ret i32 %.0
}